target datalayout = "e-m:e-p270:32:32-p271:32:32-p272:64:64-i64:64-i128:128-f80:128-n8:16:32:64-S128"
target triple = "x86_64-pc-linux-gnu"

%"class.open3d::core::Device" = type { i32, i32 }

@.str = private unnamed_addr constant [137 x i8] c"generated/home/dtcxzyw/WorkSpace/Projects/compilers/llvm-opt-benchmark/bench/open3d/Open3D/cpp/open3d/core/nns/NearestNeighborSearch.cpp\00", align 1
@__PRETTY_FUNCTION__._ZNK6open3d4core3nns21NearestNeighborSearch13AssertNotCUDAERKNS0_6TensorE = private unnamed_addr constant [83 x i8] c"void open3d::core::nns::NearestNeighborSearch::AssertNotCUDA(const Tensor &) const\00", align 1
@.str.7 = private unnamed_addr constant [62 x i8] c"TODO: NearestNeighborSearch does not support CUDA tensor yet.\00", align 1

; Function Attrs: inlinehint mustprogress nounwind ssp uwtable
define linkonce_odr noundef i32 @_ZNK6open3d4core6Device7GetTypeEv(ptr noundef nonnull align 4 dereferenceable(8) %0) #1 comdat align 2 {
  %2 = alloca ptr, align 8
  store ptr %0, ptr %2, align 8, !tbaa !113
  %3 = load ptr, ptr %2, align 8
  %4 = getelementptr inbounds nuw %"class.open3d::core::Device", ptr %3, i32 0, i32 0
  %5 = load i32, ptr %4, align 4, !tbaa !115
  ret i32 %5
}

; Function Attrs: inlinehint mustprogress ssp uwtable
define linkonce_odr noundef zeroext i1 @_ZNK6open3d4core8IsDevice6IsCUDAEv(ptr noundef nonnull align 8 dereferenceable(8) %0) #13 comdat align 2 {
  %2 = alloca ptr, align 8
  %3 = alloca %"class.open3d::core::Device", align 4
  store ptr %0, ptr %2, align 8, !tbaa !36
  %4 = load ptr, ptr %2, align 8
  call void @llvm.lifetime.start.p0(i64 8, ptr %3) #18
  %5 = load ptr, ptr %4, align 8, !tbaa !11
  %6 = getelementptr inbounds ptr, ptr %5, i64 2
  %7 = load ptr, ptr %6, align 8
  %8 = call i64 %7(ptr noundef nonnull align 8 dereferenceable(8) %4)
  store i64 %8, ptr %3, align 4
  %9 = call noundef i32 @_ZNK6open3d4core6Device7GetTypeEv(ptr noundef nonnull align 4 dereferenceable(8) %3)
  %10 = icmp eq i32 %9, 1
  call void @llvm.lifetime.end.p0(i64 8, ptr %3) #18
  ret i1 %10
}

; Function Attrs: mustprogress ssp uwtable
define void @_ZNK6open3d4core3nns21NearestNeighborSearch13AssertNotCUDAERKNS0_6TensorE(ptr noundef nonnull align 8 dereferenceable(216) %0, ptr noundef nonnull align 8 dereferenceable(160) %1) #8 align 2 {
  %3 = alloca ptr, align 8
  %4 = alloca ptr, align 8
  store ptr %0, ptr %3, align 8, !tbaa !4
  store ptr %1, ptr %4, align 8, !tbaa !9
  %5 = load ptr, ptr %4, align 8, !tbaa !9
  %6 = call noundef zeroext i1 @_ZNK6open3d4core8IsDevice6IsCUDAEv(ptr noundef nonnull align 8 dereferenceable(8) %5)
  br i1 %6, label %7, label %8

7:                                                ; preds = %2
  call void @_ZN6open3d7utility6Logger9LogError_IJEEEvPKciS4_S4_DpOT_(ptr noundef @.str, i32 noundef 157, ptr noundef @__PRETTY_FUNCTION__._ZNK6open3d4core3nns21NearestNeighborSearch13AssertNotCUDAERKNS0_6TensorE, ptr noundef @.str.7) #22
  unreachable

8:                                                ; preds = %2
  ret void
}