; Function Attrs: mustprogress ssp uwtable
define void @_ZNK6open3d4core3nns21NearestNeighborSearch13AssertNotCUDAERKNS0_6TensorE(ptr noundef nonnull readnone align 8 captures(none) dereferenceable(216) %0, ptr noundef nonnull align 8 dereferenceable(160) %1) local_unnamed_addr #4 align 2 {
  %3 = load ptr, ptr %1, align 8, !tbaa !4
  %4 = getelementptr inbounds nuw i8, ptr %3, i64 16
  %5 = load ptr, ptr %4, align 8
  %6 = tail call i64 %5(ptr noundef nonnull align 8 dereferenceable(8) %1)
  %7 = and i64 %6, 4294967295
  %8 = icmp eq i64 %7, 1
  br i1 %8, label %9, label %10

9:                                                ; preds = %2
  tail call void @_ZN6open3d7utility6Logger9LogError_IJEEEvPKciS4_S4_DpOT_(ptr noundef nonnull @.str, i32 noundef 157, ptr noundef nonnull @__PRETTY_FUNCTION__._ZNK6open3d4core3nns21NearestNeighborSearch13AssertNotCUDAERKNS0_6TensorE, ptr noundef nonnull @.str.7) #17
  unreachable

10:                                               ; preds = %2
  ret void
}